; Function Attrs: mustprogress uwtable
define hidden void @_ZN3smt5setup13setup_AUFLIApEv(ptr nocapture noundef nonnull readonly align 8 dereferenceable(33) %this) local_unnamed_addr #4 align 2 {
entry:
  %m_params.i = getelementptr inbounds i8, ptr %this, i64 16
  %0 = load ptr, ptr %m_params.i, align 8
  tail call void @_ZN10smt_params12setup_AUFLIAEb(ptr noundef nonnull align 8 dereferenceable(800) %0, i1 noundef zeroext true)
  %1 = load ptr, ptr %this, align 8
  %call.i = tail call noalias noundef ptr @_ZN6memory8allocateEm(i64 noundef 1544)
  %2 = load ptr, ptr %this, align 8
  tail call void @_ZN3smt12theory_arithINS_5i_extEEC1ERNS_7contextE(ptr noundef nonnull align 8 dereferenceable(1544) %call.i, ptr noundef nonnull align 8 dereferenceable(11616) %2)
  tail call void @_ZN3smt7context15register_pluginEPNS_6theoryE(ptr noundef nonnull align 8 dereferenceable(11616) %1, ptr noundef nonnull %call.i)
  tail call void @_ZN3smt5setup12setup_arraysEv(ptr noundef nonnull align 8 dereferenceable(33) %this)
  ret void
}